target datalayout = "e-m:e-p270:32:32-p271:32:32-p272:64:64-i64:64-i128:128-f80:128-n8:16:32:64-S128"
target triple = "x86_64-pc-linux-gnu"

%struct.mpd_t = type { i8, i64, i64, i64, i64, ptr }

@mpd_pow10 = external hidden constant [0 x i64], align 8
@MPD_MINALLOC = external hidden global i64, align 8

; Function Attrs: alwaysinline nounwind uwtable
define hidden i32 @mpd_word_digits(i64 noundef %0) #1 {
  %2 = alloca i32, align 4
  %3 = alloca i64, align 8
  store i64 %0, ptr %3, align 8, !tbaa !3
  %4 = load i64, ptr %3, align 8, !tbaa !3
  %5 = load i64, ptr getelementptr ([0 x i64], ptr @mpd_pow10, i64 0, i64 9), align 8, !tbaa !3
  %6 = icmp ult i64 %4, %5
  br i1 %6, label %7, label %44

7:                                                ; preds = %1
  %8 = load i64, ptr %3, align 8, !tbaa !3
  %9 = load i64, ptr getelementptr ([0 x i64], ptr @mpd_pow10, i64 0, i64 4), align 8, !tbaa !3
  %10 = icmp ult i64 %8, %9
  br i1 %10, label %11, label %25

11:                                               ; preds = %7
  %12 = load i64, ptr %3, align 8, !tbaa !3
  %13 = load i64, ptr getelementptr ([0 x i64], ptr @mpd_pow10, i64 0, i64 2), align 8, !tbaa !3
  %14 = icmp ult i64 %12, %13
  br i1 %14, label %15, label %20

15:                                               ; preds = %11
  %16 = load i64, ptr %3, align 8, !tbaa !3
  %17 = load i64, ptr getelementptr ([0 x i64], ptr @mpd_pow10, i64 0, i64 1), align 8, !tbaa !3
  %18 = icmp ult i64 %16, %17
  %19 = select i1 %18, i32 1, i32 2
  store i32 %19, ptr %2, align 4
  br label %90

20:                                               ; preds = %11
  %21 = load i64, ptr %3, align 8, !tbaa !3
  %22 = load i64, ptr getelementptr ([0 x i64], ptr @mpd_pow10, i64 0, i64 3), align 8, !tbaa !3
  %23 = icmp ult i64 %21, %22
  %24 = select i1 %23, i32 3, i32 4
  store i32 %24, ptr %2, align 4
  br label %90

25:                                               ; preds = %7
  %26 = load i64, ptr %3, align 8, !tbaa !3
  %27 = load i64, ptr getelementptr ([0 x i64], ptr @mpd_pow10, i64 0, i64 6), align 8, !tbaa !3
  %28 = icmp ult i64 %26, %27
  br i1 %28, label %29, label %34

29:                                               ; preds = %25
  %30 = load i64, ptr %3, align 8, !tbaa !3
  %31 = load i64, ptr getelementptr ([0 x i64], ptr @mpd_pow10, i64 0, i64 5), align 8, !tbaa !3
  %32 = icmp ult i64 %30, %31
  %33 = select i1 %32, i32 5, i32 6
  store i32 %33, ptr %2, align 4
  br label %90

34:                                               ; preds = %25
  %35 = load i64, ptr %3, align 8, !tbaa !3
  %36 = load i64, ptr getelementptr ([0 x i64], ptr @mpd_pow10, i64 0, i64 8), align 8, !tbaa !3
  %37 = icmp ult i64 %35, %36
  br i1 %37, label %38, label %43

38:                                               ; preds = %34
  %39 = load i64, ptr %3, align 8, !tbaa !3
  %40 = load i64, ptr getelementptr ([0 x i64], ptr @mpd_pow10, i64 0, i64 7), align 8, !tbaa !3
  %41 = icmp ult i64 %39, %40
  %42 = select i1 %41, i32 7, i32 8
  store i32 %42, ptr %2, align 4
  br label %90

43:                                               ; preds = %34
  store i32 9, ptr %2, align 4
  br label %90

44:                                               ; preds = %1
  %45 = load i64, ptr %3, align 8, !tbaa !3
  %46 = load i64, ptr getelementptr ([0 x i64], ptr @mpd_pow10, i64 0, i64 14), align 8, !tbaa !3
  %47 = icmp ult i64 %45, %46
  br i1 %47, label %48, label %67

48:                                               ; preds = %44
  %49 = load i64, ptr %3, align 8, !tbaa !3
  %50 = load i64, ptr getelementptr ([0 x i64], ptr @mpd_pow10, i64 0, i64 11), align 8, !tbaa !3
  %51 = icmp ult i64 %49, %50
  br i1 %51, label %52, label %57

52:                                               ; preds = %48
  %53 = load i64, ptr %3, align 8, !tbaa !3
  %54 = load i64, ptr getelementptr ([0 x i64], ptr @mpd_pow10, i64 0, i64 10), align 8, !tbaa !3
  %55 = icmp ult i64 %53, %54
  %56 = select i1 %55, i32 10, i32 11
  store i32 %56, ptr %2, align 4
  br label %90

57:                                               ; preds = %48
  %58 = load i64, ptr %3, align 8, !tbaa !3
  %59 = load i64, ptr getelementptr ([0 x i64], ptr @mpd_pow10, i64 0, i64 13), align 8, !tbaa !3
  %60 = icmp ult i64 %58, %59
  br i1 %60, label %61, label %66

61:                                               ; preds = %57
  %62 = load i64, ptr %3, align 8, !tbaa !3
  %63 = load i64, ptr getelementptr ([0 x i64], ptr @mpd_pow10, i64 0, i64 12), align 8, !tbaa !3
  %64 = icmp ult i64 %62, %63
  %65 = select i1 %64, i32 12, i32 13
  store i32 %65, ptr %2, align 4
  br label %90

66:                                               ; preds = %57
  store i32 14, ptr %2, align 4
  br label %90

67:                                               ; preds = %44
  %68 = load i64, ptr %3, align 8, !tbaa !3
  %69 = load i64, ptr getelementptr ([0 x i64], ptr @mpd_pow10, i64 0, i64 18), align 8, !tbaa !3
  %70 = icmp ult i64 %68, %69
  br i1 %70, label %71, label %85

71:                                               ; preds = %67
  %72 = load i64, ptr %3, align 8, !tbaa !3
  %73 = load i64, ptr getelementptr ([0 x i64], ptr @mpd_pow10, i64 0, i64 16), align 8, !tbaa !3
  %74 = icmp ult i64 %72, %73
  br i1 %74, label %75, label %80

75:                                               ; preds = %71
  %76 = load i64, ptr %3, align 8, !tbaa !3
  %77 = load i64, ptr getelementptr ([0 x i64], ptr @mpd_pow10, i64 0, i64 15), align 8, !tbaa !3
  %78 = icmp ult i64 %76, %77
  %79 = select i1 %78, i32 15, i32 16
  store i32 %79, ptr %2, align 4
  br label %90

80:                                               ; preds = %71
  %81 = load i64, ptr %3, align 8, !tbaa !3
  %82 = load i64, ptr getelementptr ([0 x i64], ptr @mpd_pow10, i64 0, i64 17), align 8, !tbaa !3
  %83 = icmp ult i64 %81, %82
  %84 = select i1 %83, i32 17, i32 18
  store i32 %84, ptr %2, align 4
  br label %90

85:                                               ; preds = %67
  %86 = load i64, ptr %3, align 8, !tbaa !3
  %87 = load i64, ptr getelementptr ([0 x i64], ptr @mpd_pow10, i64 0, i64 19), align 8, !tbaa !3
  %88 = icmp ult i64 %86, %87
  %89 = select i1 %88, i32 19, i32 20
  store i32 %89, ptr %2, align 4
  br label %90

90:                                               ; preds = %85, %80, %75, %66, %61, %52, %43, %38, %29, %20, %15
  %91 = load i32, ptr %2, align 4
  ret i32 %91
}

; Function Attrs: alwaysinline nounwind uwtable
define hidden i64 @mpd_msword(ptr noundef %0) #1 {
  %2 = alloca ptr, align 8
  store ptr %0, ptr %2, align 8, !tbaa !7
  %3 = load ptr, ptr %2, align 8, !tbaa !7
  %4 = getelementptr inbounds nuw %struct.mpd_t, ptr %3, i32 0, i32 5
  %5 = load ptr, ptr %4, align 8, !tbaa !21
  %6 = load ptr, ptr %2, align 8, !tbaa !7
  %7 = getelementptr inbounds nuw %struct.mpd_t, ptr %6, i32 0, i32 3
  %8 = load i64, ptr %7, align 8, !tbaa !22
  %9 = sub i64 %8, 1
  %10 = getelementptr i64, ptr %5, i64 %9
  %11 = load i64, ptr %10, align 8, !tbaa !3
  ret i64 %11
}

; Function Attrs: alwaysinline nounwind uwtable
define hidden i32 @mpd_isstatic_data(ptr noundef %0) #1 {
  %2 = alloca ptr, align 8
  store ptr %0, ptr %2, align 8, !tbaa !7
  %3 = load ptr, ptr %2, align 8, !tbaa !7
  %4 = getelementptr inbounds nuw %struct.mpd_t, ptr %3, i32 0, i32 0
  %5 = load i8, ptr %4, align 8, !tbaa !25
  %6 = zext i8 %5 to i32
  %7 = and i32 %6, 32
  ret i32 %7
}

; Function Attrs: inlinehint nounwind uwtable
define hidden void @mpd_setdigits(ptr noundef %0) #2 {
  %2 = alloca ptr, align 8
  %3 = alloca i64, align 8
  store ptr %0, ptr %2, align 8, !tbaa !7
  call void @llvm.lifetime.start.p0(i64 8, ptr %3) #10
  %4 = load ptr, ptr %2, align 8, !tbaa !7
  %5 = call i64 @mpd_msword(ptr noundef %4)
  %6 = call i32 @mpd_word_digits(i64 noundef %5)
  %7 = sext i32 %6 to i64
  store i64 %7, ptr %3, align 8, !tbaa !3
  %8 = load i64, ptr %3, align 8, !tbaa !3
  %9 = load ptr, ptr %2, align 8, !tbaa !7
  %10 = getelementptr inbounds nuw %struct.mpd_t, ptr %9, i32 0, i32 3
  %11 = load i64, ptr %10, align 8, !tbaa !22
  %12 = sub i64 %11, 1
  %13 = mul i64 %12, 19
  %14 = add i64 %8, %13
  %15 = load ptr, ptr %2, align 8, !tbaa !7
  %16 = getelementptr inbounds nuw %struct.mpd_t, ptr %15, i32 0, i32 2
  store i64 %14, ptr %16, align 8, !tbaa !13
  call void @llvm.lifetime.end.p0(i64 8, ptr %3) #10
  ret void
}

; Function Attrs: alwaysinline nounwind uwtable
define hidden i32 @mpd_qresize(ptr noundef %0, i64 noundef %1, ptr noundef %2) #1 {
  %4 = alloca i32, align 4
  %5 = alloca ptr, align 8
  %6 = alloca i64, align 8
  %7 = alloca ptr, align 8
  store ptr %0, ptr %5, align 8, !tbaa !7
  store i64 %1, ptr %6, align 8, !tbaa !3
  store ptr %2, ptr %7, align 8, !tbaa !29
  %8 = load i64, ptr %6, align 8, !tbaa !3
  %9 = load i64, ptr @MPD_MINALLOC, align 8, !tbaa !3
  %10 = icmp sle i64 %8, %9
  br i1 %10, label %11, label %13

11:                                               ; preds = %3
  %12 = load i64, ptr @MPD_MINALLOC, align 8, !tbaa !3
  br label %15

13:                                               ; preds = %3
  %14 = load i64, ptr %6, align 8, !tbaa !3
  br label %15

15:                                               ; preds = %13, %11
  %16 = phi i64 [ %12, %11 ], [ %14, %13 ]
  store i64 %16, ptr %6, align 8, !tbaa !3
  %17 = load i64, ptr %6, align 8, !tbaa !3
  %18 = load ptr, ptr %5, align 8, !tbaa !7
  %19 = getelementptr inbounds nuw %struct.mpd_t, ptr %18, i32 0, i32 4
  %20 = load i64, ptr %19, align 8, !tbaa !31
  %21 = icmp eq i64 %17, %20
  br i1 %21, label %22, label %23

22:                                               ; preds = %15
  store i32 1, ptr %4, align 4
  br label %44

23:                                               ; preds = %15
  %24 = load ptr, ptr %5, align 8, !tbaa !7
  %25 = call i32 @mpd_isstatic_data(ptr noundef %24)
  %26 = icmp ne i32 %25, 0
  br i1 %26, label %27, label %39

27:                                               ; preds = %23
  %28 = load i64, ptr %6, align 8, !tbaa !3
  %29 = load ptr, ptr %5, align 8, !tbaa !7
  %30 = getelementptr inbounds nuw %struct.mpd_t, ptr %29, i32 0, i32 4
  %31 = load i64, ptr %30, align 8, !tbaa !31
  %32 = icmp sgt i64 %28, %31
  br i1 %32, label %33, label %38

33:                                               ; preds = %27
  %34 = load ptr, ptr %5, align 8, !tbaa !7
  %35 = load i64, ptr %6, align 8, !tbaa !3
  %36 = load ptr, ptr %7, align 8, !tbaa !29
  %37 = call i32 @mpd_switch_to_dyn(ptr noundef %34, i64 noundef %35, ptr noundef %36)
  store i32 %37, ptr %4, align 4
  br label %44

38:                                               ; preds = %27
  store i32 1, ptr %4, align 4
  br label %44

39:                                               ; preds = %23
  %40 = load ptr, ptr %5, align 8, !tbaa !7
  %41 = load i64, ptr %6, align 8, !tbaa !3
  %42 = load ptr, ptr %7, align 8, !tbaa !29
  %43 = call i32 @mpd_realloc_dyn(ptr noundef %40, i64 noundef %41, ptr noundef %42)
  store i32 %43, ptr %4, align 4
  br label %44

44:                                               ; preds = %39, %38, %33, %22
  %45 = load i32, ptr %4, align 4
  ret i32 %45
}

; Function Attrs: nounwind uwtable
define internal i64 @_set_coeff(ptr noundef %0, i64 noundef %1, i64 noundef %2) #0 {
  %4 = alloca ptr, align 8
  %5 = alloca i64, align 8
  %6 = alloca i64, align 8
  %7 = alloca i128, align 16
  %8 = alloca i128, align 16
  %9 = alloca i128, align 16
  store ptr %0, ptr %4, align 8, !tbaa !24
  store i64 %1, ptr %5, align 8, !tbaa !3
  store i64 %2, ptr %6, align 8, !tbaa !3
  call void @llvm.lifetime.start.p0(i64 16, ptr %7) #10
  %10 = load i64, ptr %5, align 8, !tbaa !3
  %11 = zext i64 %10 to i128
  %12 = shl i128 %11, 64
  %13 = load i64, ptr %6, align 8, !tbaa !3
  %14 = zext i64 %13 to i128
  %15 = add i128 %12, %14
  store i128 %15, ptr %7, align 16, !tbaa !97
  call void @llvm.lifetime.start.p0(i64 16, ptr %8) #10
  call void @llvm.lifetime.start.p0(i64 16, ptr %9) #10
  %16 = load i128, ptr %7, align 16, !tbaa !97
  %17 = udiv i128 %16, 10000000000000000000
  store i128 %17, ptr %8, align 16, !tbaa !97
  %18 = load i128, ptr %7, align 16, !tbaa !97
  %19 = urem i128 %18, 10000000000000000000
  store i128 %19, ptr %9, align 16, !tbaa !97
  %20 = load i128, ptr %9, align 16, !tbaa !97
  %21 = trunc i128 %20 to i64
  %22 = load ptr, ptr %4, align 8, !tbaa !24
  %23 = getelementptr i64, ptr %22, i64 0
  store i64 %21, ptr %23, align 8, !tbaa !3
  %24 = load i128, ptr %8, align 16, !tbaa !97
  store i128 %24, ptr %7, align 16, !tbaa !97
  %25 = load i128, ptr %7, align 16, !tbaa !97
  %26 = udiv i128 %25, 10000000000000000000
  store i128 %26, ptr %8, align 16, !tbaa !97
  %27 = load i128, ptr %7, align 16, !tbaa !97
  %28 = urem i128 %27, 10000000000000000000
  store i128 %28, ptr %9, align 16, !tbaa !97
  %29 = load i128, ptr %9, align 16, !tbaa !97
  %30 = trunc i128 %29 to i64
  %31 = load ptr, ptr %4, align 8, !tbaa !24
  %32 = getelementptr i64, ptr %31, i64 1
  store i64 %30, ptr %32, align 8, !tbaa !3
  %33 = load i128, ptr %8, align 16, !tbaa !97
  store i128 %33, ptr %7, align 16, !tbaa !97
  %34 = load i128, ptr %7, align 16, !tbaa !97
  %35 = udiv i128 %34, 10000000000000000000
  store i128 %35, ptr %8, align 16, !tbaa !97
  %36 = load i128, ptr %7, align 16, !tbaa !97
  %37 = urem i128 %36, 10000000000000000000
  store i128 %37, ptr %9, align 16, !tbaa !97
  %38 = load i128, ptr %9, align 16, !tbaa !97
  %39 = trunc i128 %38 to i64
  %40 = load ptr, ptr %4, align 8, !tbaa !24
  %41 = getelementptr i64, ptr %40, i64 2
  store i64 %39, ptr %41, align 8, !tbaa !3
  %42 = load i128, ptr %8, align 16, !tbaa !97
  %43 = icmp ne i128 %42, 0
  br i1 %43, label %44, label %45

44:                                               ; preds = %3
  call void @abort() #11
  unreachable

45:                                               ; preds = %3
  %46 = load ptr, ptr %4, align 8, !tbaa !24
  %47 = getelementptr i64, ptr %46, i64 2
  %48 = load i64, ptr %47, align 8, !tbaa !3
  %49 = icmp ne i64 %48, 0
  br i1 %49, label %50, label %51

50:                                               ; preds = %45
  br label %57

51:                                               ; preds = %45
  %52 = load ptr, ptr %4, align 8, !tbaa !24
  %53 = getelementptr i64, ptr %52, i64 1
  %54 = load i64, ptr %53, align 8, !tbaa !3
  %55 = icmp ne i64 %54, 0
  %56 = select i1 %55, i32 2, i32 1
  br label %57

57:                                               ; preds = %51, %50
  %58 = phi i32 [ 3, %50 ], [ %56, %51 ]
  %59 = sext i32 %58 to i64
  call void @llvm.lifetime.end.p0(i64 16, ptr %9) #10
  call void @llvm.lifetime.end.p0(i64 16, ptr %8) #10
  call void @llvm.lifetime.end.p0(i64 16, ptr %7) #10
  ret i64 %59
}

; Function Attrs: nounwind uwtable
define internal i32 @_set_uint128_coeff_exp(ptr noundef %0, i64 noundef %1, i64 noundef %2, i64 noundef %3) #0 {
  %5 = alloca i32, align 4
  %6 = alloca ptr, align 8
  %7 = alloca i64, align 8
  %8 = alloca i64, align 8
  %9 = alloca i64, align 8
  %10 = alloca [5 x i64], align 16
  %11 = alloca i32, align 4
  %12 = alloca i64, align 8
  %13 = alloca i32, align 4
  %14 = alloca i64, align 8
  store ptr %0, ptr %6, align 8, !tbaa !7
  store i64 %1, ptr %7, align 8, !tbaa !3
  store i64 %2, ptr %8, align 8, !tbaa !3
  store i64 %3, ptr %9, align 8, !tbaa !3
  call void @llvm.lifetime.start.p0(i64 40, ptr %10) #10
  call void @llvm.memset.p0.i64(ptr align 16 %10, i8 0, i64 40, i1 false)
  call void @llvm.lifetime.start.p0(i64 4, ptr %11) #10
  store i32 0, ptr %11, align 4, !tbaa !23
  call void @llvm.lifetime.start.p0(i64 8, ptr %12) #10
  %15 = getelementptr inbounds [5 x i64], ptr %10, i64 0, i64 0
  %16 = load i64, ptr %7, align 8, !tbaa !3
  %17 = load i64, ptr %8, align 8, !tbaa !3
  %18 = call i64 @_set_coeff(ptr noundef %15, i64 noundef %16, i64 noundef %17)
  store i64 %18, ptr %12, align 8, !tbaa !3
  %19 = load ptr, ptr %6, align 8, !tbaa !7
  %20 = load i64, ptr %12, align 8, !tbaa !3
  %21 = call i32 @mpd_qresize(ptr noundef %19, i64 noundef %20, ptr noundef %11)
  %22 = icmp ne i32 %21, 0
  br i1 %22, label %24, label %23

23:                                               ; preds = %4
  store i32 -1, ptr %5, align 4
  store i32 1, ptr %13, align 4
  br label %50

24:                                               ; preds = %4
  call void @llvm.lifetime.start.p0(i64 8, ptr %14) #10
  store i64 0, ptr %14, align 8, !tbaa !3
  br label %25

25:                                               ; preds = %39, %24
  %26 = load i64, ptr %14, align 8, !tbaa !3
  %27 = load i64, ptr %12, align 8, !tbaa !3
  %28 = icmp slt i64 %26, %27
  br i1 %28, label %30, label %29

29:                                               ; preds = %25
  store i32 2, ptr %13, align 4
  call void @llvm.lifetime.end.p0(i64 8, ptr %14) #10
  br label %42

30:                                               ; preds = %25
  %31 = load i64, ptr %14, align 8, !tbaa !3
  %32 = getelementptr [5 x i64], ptr %10, i64 0, i64 %31
  %33 = load i64, ptr %32, align 8, !tbaa !3
  %34 = load ptr, ptr %6, align 8, !tbaa !7
  %35 = getelementptr inbounds nuw %struct.mpd_t, ptr %34, i32 0, i32 5
  %36 = load ptr, ptr %35, align 8, !tbaa !21
  %37 = load i64, ptr %14, align 8, !tbaa !3
  %38 = getelementptr i64, ptr %36, i64 %37
  store i64 %33, ptr %38, align 8, !tbaa !3
  br label %39

39:                                               ; preds = %30
  %40 = load i64, ptr %14, align 8, !tbaa !3
  %41 = add i64 %40, 1
  store i64 %41, ptr %14, align 8, !tbaa !3
  br label %25, !llvm.loop !96

42:                                               ; preds = %29
  %43 = load i64, ptr %9, align 8, !tbaa !3
  %44 = load ptr, ptr %6, align 8, !tbaa !7
  %45 = getelementptr inbounds nuw %struct.mpd_t, ptr %44, i32 0, i32 1
  store i64 %43, ptr %45, align 8, !tbaa !10
  %46 = load i64, ptr %12, align 8, !tbaa !3
  %47 = load ptr, ptr %6, align 8, !tbaa !7
  %48 = getelementptr inbounds nuw %struct.mpd_t, ptr %47, i32 0, i32 3
  store i64 %46, ptr %48, align 8, !tbaa !22
  %49 = load ptr, ptr %6, align 8, !tbaa !7
  call void @mpd_setdigits(ptr noundef %49)
  store i32 0, ptr %5, align 4
  store i32 1, ptr %13, align 4
  br label %50

50:                                               ; preds = %42, %23
  call void @llvm.lifetime.end.p0(i64 8, ptr %12) #10
  call void @llvm.lifetime.end.p0(i64 4, ptr %11) #10
  call void @llvm.lifetime.end.p0(i64 40, ptr %10) #10
  %51 = load i32, ptr %5, align 4
  ret i32 %51
}