; Function Attrs: nounwind uwtable
define internal fastcc range(i32 -1, 1) i32 @_set_uint128_coeff_exp(ptr noundef %0, i64 noundef %1, i64 noundef %2, i64 noundef %3) unnamed_addr #10 {
  %5 = alloca [5 x i64], align 16
  %6 = alloca i32, align 4
  call void @llvm.lifetime.start.p0(i64 40, ptr nonnull %5)
  %.16..sroa_idx21 = getelementptr inbounds nuw i8, ptr %5, i64 16
  call void @llvm.memset.p0.i64(ptr noundef nonnull align 16 dereferenceable(24) %.16..sroa_idx21, i8 0, i64 24, i1 false)
  call void @llvm.lifetime.start.p0(i64 4, ptr nonnull %6) #33
  store i32 0, ptr %6, align 4, !tbaa !23
  %7 = zext i64 %1 to i128
  %8 = shl nuw i128 %7, 64
  %9 = zext i64 %2 to i128
  %10 = or disjoint i128 %8, %9
  %11 = udiv i128 %10, 10000000000000000000
  %12 = mul i128 %11, 10000000000000000000
  %.decomposed = sub i128 %10, %12
  %13 = trunc nuw i128 %.decomposed to i64
  store i64 %13, ptr %5, align 16, !tbaa !3
  %14 = udiv i128 %10, 100000000000000000000000000000000000000
  %15 = urem i128 %11, 10000000000000000000
  %16 = trunc nuw i128 %15 to i64
  %.8..8..sroa_idx = getelementptr inbounds nuw i8, ptr %5, i64 8
  store i64 %16, ptr %.8..8..sroa_idx, align 8, !tbaa !3
  %17 = trunc nuw nsw i128 %14 to i64
  %.16..16..sroa_idx = getelementptr inbounds nuw i8, ptr %5, i64 16
  store i64 %17, ptr %.16..16..sroa_idx, align 16, !tbaa !3
  %.not.i17 = icmp eq i64 %17, 0
  %.not18.i = icmp eq i64 %16, 0
  %18 = select i1 %.not18.i, i64 1, i64 2
  %19 = select i1 %.not.i17, i64 %18, i64 3
  %20 = load i64, ptr @MPD_MINALLOC, align 8, !tbaa !3
  %21 = tail call i64 @llvm.smax.i64(i64 %19, i64 %20)
  %22 = getelementptr inbounds nuw i8, ptr %0, i64 32
  %23 = load i64, ptr %22, align 8, !tbaa !21
  %24 = icmp eq i64 %21, %23
  br i1 %24, label %.preheader, label %25

25:                                               ; preds = %4
  %26 = load i8, ptr %0, align 8, !tbaa !19
  %27 = and i8 %26, 32
  %.not.i = icmp eq i8 %27, 0
  br i1 %.not.i, label %32, label %28

28:                                               ; preds = %25
  %29 = icmp sgt i64 %21, %23
  br i1 %29, label %30, label %.preheader

30:                                               ; preds = %28
  %31 = call i32 @mpd_switch_to_dyn(ptr noundef nonnull %0, i64 noundef %21, ptr noundef nonnull %6) #33
  br label %mpd_qresize.exit

32:                                               ; preds = %25
  %33 = call i32 @mpd_realloc_dyn(ptr noundef nonnull %0, i64 noundef %21, ptr noundef nonnull %6) #33
  br label %mpd_qresize.exit

mpd_qresize.exit:                                 ; preds = %30, %32
  %.0.i = phi i32 [ %31, %30 ], [ %33, %32 ]
  %.not = icmp eq i32 %.0.i, 0
  br i1 %.not, label %111, label %.preheader

.preheader:                                       ; preds = %28, %4, %mpd_qresize.exit
  %34 = getelementptr inbounds nuw i8, ptr %0, i64 40
  %35 = load ptr, ptr %34, align 8, !tbaa !17
  %36 = shl nuw nsw i64 %19, 3
  call void @llvm.memcpy.p0.p0.i64(ptr noundef nonnull align 8 dereferenceable(1) %35, ptr noundef nonnull align 16 dereferenceable(1) %5, i64 %36, i1 false), !tbaa !3
  %37 = getelementptr inbounds nuw i8, ptr %0, i64 8
  store i64 %3, ptr %37, align 8, !tbaa !7
  %38 = getelementptr inbounds nuw i8, ptr %0, i64 24
  store i64 %19, ptr %38, align 8, !tbaa !18
  %39 = getelementptr i64, ptr %35, i64 %19
  %40 = getelementptr i8, ptr %39, i64 -8
  %41 = load i64, ptr %40, align 8, !tbaa !3
  %42 = load i64, ptr getelementptr (i8, ptr @mpd_pow10, i64 72), align 8, !tbaa !3
  %43 = icmp ult i64 %41, %42
  br i1 %43, label %44, label %72

44:                                               ; preds = %.preheader
  %45 = load i64, ptr getelementptr (i8, ptr @mpd_pow10, i64 32), align 8, !tbaa !3
  %46 = icmp ult i64 %41, %45
  br i1 %46, label %47, label %58

47:                                               ; preds = %44
  %48 = load i64, ptr getelementptr (i8, ptr @mpd_pow10, i64 16), align 8, !tbaa !3
  %49 = icmp ult i64 %41, %48
  br i1 %49, label %50, label %54

50:                                               ; preds = %47
  %51 = load i64, ptr getelementptr (i8, ptr @mpd_pow10, i64 8), align 8, !tbaa !3
  %52 = icmp ult i64 %41, %51
  %53 = select i1 %52, i64 1, i64 2
  br label %mpd_setdigits.exit

54:                                               ; preds = %47
  %55 = load i64, ptr getelementptr (i8, ptr @mpd_pow10, i64 24), align 8, !tbaa !3
  %56 = icmp ult i64 %41, %55
  %57 = select i1 %56, i64 3, i64 4
  br label %mpd_setdigits.exit

58:                                               ; preds = %44
  %59 = load i64, ptr getelementptr (i8, ptr @mpd_pow10, i64 48), align 8, !tbaa !3
  %60 = icmp ult i64 %41, %59
  br i1 %60, label %61, label %65

61:                                               ; preds = %58
  %62 = load i64, ptr getelementptr (i8, ptr @mpd_pow10, i64 40), align 8, !tbaa !3
  %63 = icmp ult i64 %41, %62
  %64 = select i1 %63, i64 5, i64 6
  br label %mpd_setdigits.exit

65:                                               ; preds = %58
  %66 = load i64, ptr getelementptr (i8, ptr @mpd_pow10, i64 64), align 8, !tbaa !3
  %67 = icmp ult i64 %41, %66
  br i1 %67, label %68, label %mpd_setdigits.exit

68:                                               ; preds = %65
  %69 = load i64, ptr getelementptr (i8, ptr @mpd_pow10, i64 56), align 8, !tbaa !3
  %70 = icmp ult i64 %41, %69
  %71 = select i1 %70, i64 7, i64 8
  br label %mpd_setdigits.exit

72:                                               ; preds = %.preheader
  %73 = load i64, ptr getelementptr (i8, ptr @mpd_pow10, i64 112), align 8, !tbaa !3
  %74 = icmp ult i64 %41, %73
  br i1 %74, label %75, label %89

75:                                               ; preds = %72
  %76 = load i64, ptr getelementptr (i8, ptr @mpd_pow10, i64 88), align 8, !tbaa !3
  %77 = icmp ult i64 %41, %76
  br i1 %77, label %78, label %82

78:                                               ; preds = %75
  %79 = load i64, ptr getelementptr (i8, ptr @mpd_pow10, i64 80), align 8, !tbaa !3
  %80 = icmp ult i64 %41, %79
  %81 = select i1 %80, i64 10, i64 11
  br label %mpd_setdigits.exit

82:                                               ; preds = %75
  %83 = load i64, ptr getelementptr (i8, ptr @mpd_pow10, i64 104), align 8, !tbaa !3
  %84 = icmp ult i64 %41, %83
  br i1 %84, label %85, label %mpd_setdigits.exit

85:                                               ; preds = %82
  %86 = load i64, ptr getelementptr (i8, ptr @mpd_pow10, i64 96), align 8, !tbaa !3
  %87 = icmp ult i64 %41, %86
  %88 = select i1 %87, i64 12, i64 13
  br label %mpd_setdigits.exit

89:                                               ; preds = %72
  %90 = load i64, ptr getelementptr (i8, ptr @mpd_pow10, i64 144), align 8, !tbaa !3
  %91 = icmp ult i64 %41, %90
  br i1 %91, label %92, label %103

92:                                               ; preds = %89
  %93 = load i64, ptr getelementptr (i8, ptr @mpd_pow10, i64 128), align 8, !tbaa !3
  %94 = icmp ult i64 %41, %93
  br i1 %94, label %95, label %99

95:                                               ; preds = %92
  %96 = load i64, ptr getelementptr (i8, ptr @mpd_pow10, i64 120), align 8, !tbaa !3
  %97 = icmp ult i64 %41, %96
  %98 = select i1 %97, i64 15, i64 16
  br label %mpd_setdigits.exit

99:                                               ; preds = %92
  %100 = load i64, ptr getelementptr (i8, ptr @mpd_pow10, i64 136), align 8, !tbaa !3
  %101 = icmp ult i64 %41, %100
  %102 = select i1 %101, i64 17, i64 18
  br label %mpd_setdigits.exit

103:                                              ; preds = %89
  %104 = load i64, ptr getelementptr (i8, ptr @mpd_pow10, i64 152), align 8, !tbaa !3
  %105 = icmp ult i64 %41, %104
  %106 = select i1 %105, i64 19, i64 20
  br label %mpd_setdigits.exit

mpd_setdigits.exit:                               ; preds = %50, %54, %61, %65, %68, %78, %82, %85, %95, %99, %103
  %.0.i.i = phi i64 [ %53, %50 ], [ %57, %54 ], [ %64, %61 ], [ %71, %68 ], [ %81, %78 ], [ %88, %85 ], [ %98, %95 ], [ %102, %99 ], [ %106, %103 ], [ 9, %65 ], [ 14, %82 ]
  %107 = mul nuw nsw i64 %19, 19
  %108 = add nsw i64 %107, -19
  %109 = add nuw nsw i64 %108, %.0.i.i
  %110 = getelementptr inbounds nuw i8, ptr %0, i64 16
  store i64 %109, ptr %110, align 8, !tbaa !11
  br label %111

111:                                              ; preds = %mpd_qresize.exit, %mpd_setdigits.exit
  %.015 = phi i32 [ 0, %mpd_setdigits.exit ], [ -1, %mpd_qresize.exit ]
  call void @llvm.lifetime.end.p0(i64 4, ptr nonnull %6) #33
  call void @llvm.lifetime.end.p0(i64 40, ptr nonnull %5)
  ret i32 %.015
}